(dp0
S'TORSDOF'
p1
I2
sS'autodock_element'
p2
c__builtin__
set
p3
((lp4
S'A'
p5
aS'C'
p6
aS'HD'
p7
aS'N'
p8
atp9
Rp10
sS'center'
p11
(lp12
F0.39100000000000001
aF0.41170000000000001
aF0.077100000000000002
as.