(dp0
S'TORSDOF'
p1
I6
sS'autodock_element'
p2
c__builtin__
set
p3
((lp4
S'A'
p5
aS'C'
p6
aS'HD'
p7
aS'OA'
p8
aS'N'
p9
atp10
Rp11
sS'center'
p12
(lp13
F0.19009999999999999
aF-0.031899999999999998
aF-0.036600000000000001
as.