(dp0
S'TORSDOF'
p1
I2
sS'autodock_element'
p2
c__builtin__
set
p3
((lp4
S'A'
p5
aS'C'
p6
aS'HD'
p7
aS'N'
p8
atp9
Rp10
sS'center'
p11
(lp12
F-0.70609999999999995
aF-0.31030000000000002
aF-0.060499999999999998
as.