(dp0
S'TORSDOF'
p1
I2
sS'autodock_element'
p2
c__builtin__
set
p3
((lp4
S'A'
p5
aS'NA'
p6
aS'C'
p7
aS'N'
p8
atp9
Rp10
sS'center'
p11
(lp12
F-0.00059999999999999995
aF0.00040000000000000002
aF-0.00029999999999999997
as.