(dp0
S'TORSDOF'
p1
I8
sS'autodock_element'
p2
c__builtin__
set
p3
((lp4
S'A'
p5
aS'C'
p6
aS'HD'
p7
aS'OA'
p8
aS'N'
p9
atp10
Rp11
sS'center'
p12
(lp13
F-0.57250000000000001
aF-0.036200000000000003
aF-0.0229
as.