(dp0
S'TORSDOF'
p1
I5
sS'autodock_element'
p2
c__builtin__
set
p3
((lp4
S'A'
p5
aS'C'
p6
aS'HD'
p7
aS'OA'
p8
aS'N'
p9
atp10
Rp11
sS'center'
p12
(lp13
F-0.39100000000000001
aF0.0032000000000000002
aF-0.035700000000000003
as.