(dp0
S'TORSDOF'
p1
I1
sS'autodock_element'
p2
c__builtin__
set
p3
((lp4
S'A'
p5
aS'C'
p6
aS'HD'
p7
aS'OA'
p8
aS'N'
p9
atp10
Rp11
sS'center'
p12
(lp13
F-0.23549999999999999
aF0.21540000000000001
aF-0.0
as.