(dp0
S'TORSDOF'
p1
I3
sS'autodock_element'
p2
c__builtin__
set
p3
((lp4
S'A'
p5
aS'C'
p6
aS'HD'
p7
aS'N'
p8
atp9
Rp10
sS'center'
p11
(lp12
F-0.0054000000000000003
aF0.069099999999999995
aF0.10539999999999999
as.